target datalayout = "e-m:e-p270:32:32-p271:32:32-p272:64:64-i64:64-i128:128-f80:128-n8:16:32:64-S128"
target triple = "x86_64-pc-linux-gnu"

%"class.nanobind::handle" = type { ptr }
%"struct.nanobind::detail::ticket" = type <{ %"class.nanobind::handle", %"class.nanobind::handle", ptr, i32, [4 x i8] }>

@_ZN8nanobind6detailL14current_ticketE = internal thread_local global ptr null, align 8

; Function Attrs: alwaysinline mustprogress nounwind uwtable
define linkonce_odr hidden noundef zeroext i1 @_ZNK8nanobind6handlecvbEv(ptr noundef nonnull align 8 dereferenceable(8) %0) #9 comdat align 2 {
  %2 = alloca ptr, align 8
  store ptr %0, ptr %2, align 8
  %3 = load ptr, ptr %2, align 8
  %4 = getelementptr inbounds nuw %"class.nanobind::handle", ptr %3, i32 0, i32 0
  %5 = load ptr, ptr %4, align 8
  %6 = icmp ne ptr %5, null
  ret i1 %6
}

; Function Attrs: mustprogress nounwind uwtable
define void @_ZN8nanobind6detail16trampoline_leaveEPNS0_6ticketE(ptr noundef %0) #0 personality ptr @__gxx_personality_v0 {
  %2 = alloca ptr, align 8
  store ptr %0, ptr %2, align 8
  %3 = load ptr, ptr %2, align 8
  %4 = getelementptr inbounds nuw %"struct.nanobind::detail::ticket", ptr %3, i32 0, i32 1
  %5 = invoke noundef zeroext i1 @_ZNK8nanobind6handlecvbEv(ptr noundef nonnull align 8 dereferenceable(8) %4)
          to label %6 unwind label %17

6:                                                ; preds = %1
  br i1 %5, label %8, label %7

7:                                                ; preds = %6
  br label %16

8:                                                ; preds = %6
  %9 = load ptr, ptr %2, align 8
  %10 = getelementptr inbounds nuw %"struct.nanobind::detail::ticket", ptr %9, i32 0, i32 2
  %11 = load ptr, ptr %10, align 8
  %12 = call align 8 ptr @llvm.threadlocal.address.p0(ptr align 8 @_ZN8nanobind6detailL14current_ticketE)
  store ptr %11, ptr %12, align 8
  %13 = load ptr, ptr %2, align 8
  %14 = getelementptr inbounds nuw %"struct.nanobind::detail::ticket", ptr %13, i32 0, i32 3
  %15 = load i32, ptr %14, align 8
  invoke void @PyGILState_Release(i32 noundef %15)
          to label %16 unwind label %17

16:                                               ; preds = %7, %8
  ret void

17:                                               ; preds = %8, %1
  %18 = landingpad { ptr, i32 }
          catch ptr null
  %19 = extractvalue { ptr, i32 } %18, 0
  call void @__clang_call_terminate(ptr %19) #16
  unreachable
}