; Function Attrs: mustprogress nounwind uwtable
define void @_ZN8nanobind6detail16trampoline_leaveEPNS0_6ticketE(ptr noundef readonly captures(none) %0) local_unnamed_addr #0 personality ptr @__gxx_personality_v0 {
  %2 = getelementptr inbounds nuw i8, ptr %0, i64 8
  %3 = load ptr, ptr %2, align 8
  %.not = icmp eq ptr %3, null
  br i1 %.not, label %10, label %4

4:                                                ; preds = %1
  %5 = getelementptr inbounds nuw i8, ptr %0, i64 16
  %6 = load ptr, ptr %5, align 8
  %7 = tail call align 8 ptr @llvm.threadlocal.address.p0(ptr align 8 @_ZN8nanobind6detailL14current_ticketE)
  store ptr %6, ptr %7, align 8
  %8 = getelementptr inbounds nuw i8, ptr %0, i64 24
  %9 = load i32, ptr %8, align 8
  invoke void @PyGILState_Release(i32 noundef %9)
          to label %10 unwind label %11

10:                                               ; preds = %1, %4
  ret void

11:                                               ; preds = %4
  %12 = landingpad { ptr, i32 }
          catch ptr null
  %13 = extractvalue { ptr, i32 } %12, 0
  tail call void @__clang_call_terminate(ptr %13) #9
  unreachable
}